target datalayout = "e-m:e-p270:32:32-p271:32:32-p272:64:64-i64:64-i128:128-f80:128-n8:16:32:64-S128"
target triple = "x86_64-pc-linux-gnu"

%struct.color_t = type { i16, i16, i16 }
%struct._color_filter = type { ptr, ptr, %struct.color_t, %struct.color_t, i8, ptr }

; Function Attrs: null_pointer_is_valid sspstrong uwtable
define internal i32 @find_hfid(ptr noundef %0, ptr noundef %1) #0 {
  %3 = alloca i32, align 4
  %4 = alloca ptr, align 8
  %5 = alloca ptr, align 8
  %6 = alloca ptr, align 8
  %7 = alloca i32, align 4
  %8 = alloca i32, align 4
  store ptr %0, ptr %4, align 8
  store ptr %1, ptr %5, align 8
  call void @llvm.lifetime.start.p0(i64 8, ptr %6) #13
  %9 = load ptr, ptr %4, align 8
  store ptr %9, ptr %6, align 8
  call void @llvm.lifetime.start.p0(i64 4, ptr %7) #13
  %10 = load ptr, ptr %5, align 8
  %11 = ptrtoint ptr %10 to i64
  %12 = trunc i64 %11 to i32
  store i32 %12, ptr %7, align 4
  %13 = load ptr, ptr %6, align 8
  %14 = getelementptr inbounds nuw %struct._color_filter, ptr %13, i32 0, i32 4
  %15 = load i8, ptr %14, align 4, !range !6, !noundef !7
  %16 = trunc i8 %15 to i1
  br i1 %16, label %30, label %17

17:                                               ; preds = %2
  %18 = load ptr, ptr %6, align 8
  %19 = getelementptr inbounds nuw %struct._color_filter, ptr %18, i32 0, i32 5
  %20 = load ptr, ptr %19, align 8
  %21 = icmp ne ptr %20, null
  br i1 %21, label %22, label %30

22:                                               ; preds = %17
  %23 = load ptr, ptr %6, align 8
  %24 = getelementptr inbounds nuw %struct._color_filter, ptr %23, i32 0, i32 5
  %25 = load ptr, ptr %24, align 8
  %26 = load i32, ptr %7, align 4
  %27 = call zeroext i1 @dfilter_interested_in_field(ptr noundef %25, i32 noundef %26)
  br i1 %27, label %28, label %29

28:                                               ; preds = %22
  store i32 0, ptr %3, align 4
  store i32 1, ptr %8, align 4
  br label %31

29:                                               ; preds = %22
  br label %30

30:                                               ; preds = %29, %17, %2
  store i32 -1, ptr %3, align 4
  store i32 1, ptr %8, align 4
  br label %31

31:                                               ; preds = %30, %28
  call void @llvm.lifetime.end.p0(i64 4, ptr %7) #13
  call void @llvm.lifetime.end.p0(i64 8, ptr %6) #13
  %32 = load i32, ptr %3, align 4
  ret i32 %32
}