; Function Attrs: null_pointer_is_valid sspstrong uwtable
define internal range(i32 -1, 1) i32 @find_hfid(ptr noundef readonly captures(none) %0, ptr noundef %1) #0 {
  %3 = ptrtoint ptr %1 to i64
  %4 = trunc i64 %3 to i32
  %5 = getelementptr inbounds nuw i8, ptr %0, i64 28
  %6 = load i8, ptr %5, align 4, !range !6, !noundef !7
  %7 = trunc nuw i8 %6 to i1
  br i1 %7, label %13, label %8

8:                                                ; preds = %2
  %9 = getelementptr inbounds nuw i8, ptr %0, i64 32
  %10 = load ptr, ptr %9, align 8
  %.not = icmp eq ptr %10, null
  br i1 %.not, label %13, label %11

11:                                               ; preds = %8
  %12 = tail call zeroext i1 @dfilter_interested_in_field(ptr noundef nonnull %10, i32 noundef %4)
  br i1 %12, label %14, label %13

13:                                               ; preds = %11, %8, %2
  br label %14

14:                                               ; preds = %11, %13
  %.0 = phi i32 [ -1, %13 ], [ 0, %11 ]
  ret i32 %.0
}